ccopy_reg
_reconstructor
p0
(cnetworkx.classes.digraph
DiGraph
p1
c__builtin__
object
p2
Ntp3
Rp4
(dp5
S'adjlist_inner_dict_factory'
p6
c__builtin__
dict
p7
sS'node_dict_factory'
p8
g7
sS'edge_attr_dict_factory'
p9
g7
sS'_node'
p10
(dp11
S'human'
p12
(dp13
sS'auxiliary science of history'
p14
(dp15
sS'generalization'
p16
(dp17
sS'electronic machine'
p18
(dp19
sS'interlocutor'
p20
(dp21
sS'philology'
p22
(dp23
sS'image'
p24
(dp25
sS'arborescence'
p26
(dp27
sS'idea'
p28
(dp29
sS'agent'
p30
(dp31
sS'syntax'
p32
(dp33
sS'depiction'
p34
(dp35
sS'fact'
p36
(dp37
sS'computer'
p38
(dp39
sS'mathematical logic'
p40
(dp41
sS'problem solving'
p42
(dp43
sS'computer program'
p44
(dp45
sS'strategic game'
p46
(dp47
sS'writing'
p48
(dp49
sS'quality'
p50
(dp51
sS'knowledge base'
p52
(dp53
sS'subject'
p54
(dp55
sS'linguistics'
p56
(dp57
sS'software component'
p58
(dp59
sS'knowledge'
p60
(dp61
sS'humanities'
p62
(dp63
sS'corporation'
p64
(dp65
sS'charge'
p66
(dp67
sS'polytree'
p68
(dp69
sS'mainframe computer'
p70
(dp71
sS'machine'
p72
(dp73
sS'moving image'
p74
(dp75
sS'juridical person'
p76
(dp77
sS'program'
p78
(dp79
sS'criterion'
p80
(dp81
sS'chess'
p82
(dp83
sS'intelligence'
p84
(dp85
sS'algorithm'
p86
(dp87
sS'binary tree'
p88
(dp89
sS'man'
p90
(dp91
sS'expert system'
p92
(dp93
sS'artificial intelligence'
p94
(dp95
sS'programming language'
p96
(dp97
sS'data structure'
p98
(dp99
sS'C'
p100
(dp101
sS'inference engine'
p102
(dp103
sS'institution'
p104
(dp105
sS'communication source'
p106
(dp107
sS'tree data structure'
p108
(dp109
sS'computer science'
p110
(dp111
sS'symbol'
p112
(dp113
sS'individual sport'
p114
(dp115
sS'specialty'
p116
(dp117
sS'C++'
p118
(dp119
sS'scientific terminology'
p120
(dp121
sS'metadata'
p122
(dp123
sS'host'
p124
(dp125
sS'human intelligence'
p126
(dp127
sS'adult'
p128
(dp129
sS'data base'
p130
(dp131
sS'organization'
p132
(dp133
sS'academic discipline'
p134
(dp135
sS'type of sport'
p136
(dp137
sS'class'
p138
(dp139
sS'structure'
p140
(dp141
sS'chess theory'
p142
(dp143
sS'interaction'
p144
(dp145
sS'legal person'
p146
(dp147
sS'thematic relation'
p148
(dp149
sS'database'
p150
(dp151
sS'goal'
p152
(dp153
sS'Disadvantaged'
p154
(dp155
sS'tree'
p156
(dp157
sS'robot'
p158
(dp159
sS'thought'
p160
(dp161
sS'person'
p162
(dp163
sS'data'
p164
(dp165
sS'sequential game'
p166
(dp167
sS'logic'
p168
(dp169
sS'male human'
p170
(dp171
sS'video'
p172
(dp173
sS'server computer'
p174
(dp175
sS'organism'
p176
(dp177
sS'procedure'
p178
(dp179
sS'software'
p180
(dp181
ssS'graph'
p182
(dp183
sS'_pred'
p184
(dp185
g12
(dp186
S'person'
p187
(dp188
ssg14
(dp189
g62
(dp190
ssg16
(dp191
S'thought'
p192
(dp193
ssg18
(dp194
g72
(dp195
ssg20
(dp196
g187
(dp197
ssg22
(dp198
g62
(dp199
ssg24
(dp200
g34
(dp201
ssg26
(dp202
g68
(dp203
ssg28
(dp204
g192
(dp205
ssg30
(dp206
g148
(dp207
ssg32
(dp208
g22
(dp209
ssg34
(dp210
g134
(dp211
ssg36
(dp212
g164
(dp213
ssg38
(dp214
g18
(dp215
ssg40
(dp216
g168
(dp217
ssg42
(dp218
g120
(dp219
ssg44
(dp220
S'software'
p221
(dp222
ssg46
(dp223
g144
(dp224
ssg48
(dp225
g106
(dp226
ssg50
(dp227
g142
(dp228
ssg52
(dp229
g92
(dp230
sS'computer program'
p231
(dp232
ssg54
(dp233
g122
(dp234
ssg56
(dp235
g22
(dp236
ssg58
(dp237
g231
(dp238
ssg60
(dp239
sg62
(dp240
g60
(dp241
ssg64
(dp242
g76
(dp243
ssg66
(dp244
g112
(dp245
ssg68
(dp246
g156
(dp247
ssg70
(dp248
g174
(dp249
ssg72
(dp250
sg74
(dp251
S'image'
p252
(dp253
ssg76
(dp254
g132
(dp255
sg146
(dp256
ssg78
(dp257
g221
(dp258
ssg80
(dp259
g50
(dp260
ssg82
(dp261
g114
(dp262
sg166
(dp263
ssg84
(dp264
sg86
(dp265
g110
(dp266
sg178
(dp267
ssg88
(dp268
g108
(dp269
sg26
(dp270
ssg90
(dp271
g128
(dp272
sg170
(dp273
sg104
(dp274
ssg92
(dp275
S'artificial intelligence'
p276
(dp277
sg231
(dp278
ssg94
(dp279
g56
(dp280
sg110
(dp281
sS'algorithm'
p282
(dp283
ssg96
(dp284
g38
(dp285
ssg98
(dp286
g110
(dp287
ssg100
(dp288
g96
(dp289
ssg102
(dp290
g78
(dp291
ssg104
(dp292
g132
(dp293
ssg106
(dp294
g20
(dp295
ssg108
(dp296
g98
(dp297
ssg110
(dp298
sg112
(dp299
g252
(dp300
sg16
(dp301
ssg114
(dp302
g136
(dp303
ssg116
(dp304
g60
(dp305
ssg118
(dp306
g96
(dp307
ssg120
(dp308
g48
(dp309
ssg122
(dp310
g164
(dp311
ssg124
(dp312
g187
(dp313
ssg126
(dp314
g84
(dp315
ssg128
(dp316
g176
(dp317
ssg130
(dp318
g150
(dp319
ssg132
(dp320
sg134
(dp321
g116
(dp322
ssg136
(dp323
g138
(dp324
ssg138
(dp325
g58
(dp326
sS'knowledge base'
p327
(dp328
sg221
(dp329
ssg140
(dp330
g40
(dp331
ssg142
(dp332
g82
(dp333
ssg144
(dp334
sg146
(dp335
g30
(dp336
ssg148
(dp337
g32
(dp338
ssg150
(dp339
g124
(dp340
ssg152
(dp341
g80
(dp342
ssg154
(dp343
g12
(dp344
ssg156
(dp345
g66
(dp346
sg14
(dp347
ssg158
(dp348
g72
(dp349
ssg160
(dp350
g120
(dp351
sg28
(dp352
ssg162
(dp353
g30
(dp354
sg54
(dp355
ssg164
(dp356
g130
(dp357
ssg166
(dp358
g46
(dp359
ssg168
(dp360
g134
(dp361
ssg170
(dp362
g12
(dp363
ssg172
(dp364
g74
(dp365
ssg174
(dp366
g38
(dp367
ssg176
(dp368
g140
(dp369
ssg178
(dp370
g78
(dp371
sg231
(dp372
ssg180
(dp373
g38
(dp374
sssS'_succ'
p375
(dp376
g12
(dp377
g154
g344
sg170
g363
ssg14
(dp378
g156
g347
ssg16
(dp379
S'symbol'
p380
g301
ssg18
(dp381
S'computer'
p382
g215
ssg20
(dp383
g106
g295
ssg22
(dp384
g56
g236
sg32
g209
ssg24
(dp385
g74
g253
sg112
g300
ssg26
(dp386
g88
g270
ssg28
(dp387
g160
g352
ssg30
(dp388
g162
g354
sg146
g336
ssg32
(dp389
g148
g338
ssg34
(dp390
g24
g201
ssg36
(dp391
sg38
(dp392
g174
g367
sg96
g285
sg180
g374
ssg40
(dp393
g140
g331
ssg42
(dp394
sg44
(dp395
g58
g238
sg178
g372
sS'expert system'
p396
g278
sS'knowledge base'
p397
g232
ssg46
(dp398
g166
g359
ssg48
(dp399
g120
g309
ssg50
(dp400
g80
g260
ssg52
(dp401
S'class'
p402
g328
ssg54
(dp403
S'person'
p404
g355
ssg56
(dp405
g94
g280
ssg58
(dp406
g138
g326
ssg60
(dp407
g116
g305
sg62
g241
ssg62
(dp408
g22
g199
sg14
g190
ssg64
(dp409
sg66
(dp410
g156
g346
ssg68
(dp411
g26
g203
ssg70
(dp412
sg72
(dp413
g158
g349
sg18
g195
ssg74
(dp414
g172
g365
ssg76
(dp415
g64
g243
ssg78
(dp416
g102
g291
sg178
g371
ssg80
(dp417
g152
g342
ssg82
(dp418
g142
g333
ssg84
(dp419
g126
g315
ssg86
(dp420
S'artificial intelligence'
p421
g283
ssg88
(dp422
sg90
(dp423
sg92
(dp424
g52
g230
ssg94
(dp425
S'expert system'
p426
g277
ssg96
(dp427
g100
g289
sg118
g307
ssg98
(dp428
g108
g297
ssg100
(dp429
sg102
(dp430
sg104
(dp431
g90
g274
ssg106
(dp432
g48
g226
ssg108
(dp433
g88
g269
ssg110
(dp434
g98
g287
sS'algorithm'
p435
g266
sS'artificial intelligence'
p436
g281
ssg112
(dp437
g66
g245
ssg114
(dp438
g82
g262
ssg116
(dp439
g134
g322
ssg118
(dp440
sg120
(dp441
S'thought'
p442
g351
sg42
g219
ssg122
(dp443
g54
g234
ssg124
(dp444
g150
g340
ssg126
(dp445
sg128
(dp446
g90
g272
ssg130
(dp447
g164
g357
ssg132
(dp448
S'juridical person'
p449
g255
sg104
g293
ssg134
(dp450
g34
g211
sg168
g361
ssg136
(dp451
g114
g303
ssg138
(dp452
g136
g324
ssg140
(dp453
g176
g369
ssg142
(dp454
g50
g228
ssg144
(dp455
g46
g224
ssg146
(dp456
g76
g256
ssg148
(dp457
g30
g207
ssg150
(dp458
g130
g319
ssg152
(dp459
sg154
(dp460
sg156
(dp461
g68
g247
ssg158
(dp462
sg160
(dp463
S'idea'
p464
g205
sg16
g193
ssg162
(dp465
g20
g197
sg124
g313
sg12
g188
ssg164
(dp466
g36
g213
sg122
g311
ssg166
(dp467
S'chess'
p468
g263
ssg168
(dp469
g40
g217
ssg170
(dp470
g90
g273
ssg172
(dp471
sg174
(dp472
g70
g249
ssg176
(dp473
g128
g317
ssg178
(dp474
g86
g267
ssg180
(dp475
g78
g258
sg138
g329
sg44
g222
sssS'_adj'
p476
g376
sS'adjlist_outer_dict_factory'
p477
g7
sb.